; Function Attrs: nofree norecurse nosync nounwind memory(argmem: readwrite) uwtable
define void @ff_h264_idct_add16intra_14_c(ptr noundef captures(none) %0, ptr noundef readonly captures(none) %1, ptr noundef captures(none) %2, i32 noundef %3, ptr noundef readonly captures(none) %4) local_unnamed_addr #0 {
  %6 = ashr i32 %3, 1
  %7 = sext i32 %6 to i64
  br label %8

8:                                                ; preds = %5, %ff_h264_idct_dc_add_14_c.exit
  %indvars.iv = phi i64 [ 0, %5 ], [ %indvars.iv.next, %ff_h264_idct_dc_add_14_c.exit ]
  %9 = getelementptr inbounds nuw [51 x i8], ptr @scan8, i64 0, i64 %indvars.iv
  %10 = load i8, ptr %9, align 1, !tbaa !10
  %11 = zext i8 %10 to i64
  %12 = getelementptr inbounds nuw i8, ptr %4, i64 %11
  %13 = load i8, ptr %12, align 1, !tbaa !10
  %.not = icmp eq i8 %13, 0
  br i1 %.not, label %20, label %14

14:                                               ; preds = %8
  %15 = getelementptr inbounds nuw i32, ptr %1, i64 %indvars.iv
  %16 = load i32, ptr %15, align 4, !tbaa !18
  %17 = sext i32 %16 to i64
  %18 = getelementptr inbounds i8, ptr %0, i64 %17
  %.idx20 = shl nuw nsw i64 %indvars.iv, 6
  %19 = getelementptr inbounds nuw i8, ptr %2, i64 %.idx20
  tail call void @ff_h264_idct_add_14_c(ptr noundef %18, ptr noundef %19, i32 noundef %3)
  br label %ff_h264_idct_dc_add_14_c.exit

20:                                               ; preds = %8
  %.idx21 = shl nuw nsw i64 %indvars.iv, 6
  %21 = getelementptr inbounds nuw i8, ptr %2, i64 %.idx21
  %22 = load i32, ptr %21, align 4, !tbaa !18
  %.not17 = icmp eq i32 %22, 0
  br i1 %.not17, label %ff_h264_idct_dc_add_14_c.exit, label %23

23:                                               ; preds = %20
  %24 = getelementptr inbounds nuw i32, ptr %1, i64 %indvars.iv
  %25 = load i32, ptr %24, align 4, !tbaa !18
  %26 = sext i32 %25 to i64
  %27 = getelementptr inbounds i8, ptr %0, i64 %26
  %.idx = shl nuw nsw i64 %indvars.iv, 6
  %28 = getelementptr inbounds nuw i8, ptr %2, i64 %.idx
  %29 = load i32, ptr %28, align 4, !tbaa !18
  %30 = add nsw i32 %29, 32
  %31 = ashr i32 %30, 6
  store i32 0, ptr %28, align 4, !tbaa !18
  br label %.preheader.i

.preheader.i:                                     ; preds = %40, %23
  %.01519.i = phi ptr [ %27, %23 ], [ %41, %40 ]
  %.01618.i = phi i32 [ 0, %23 ], [ %42, %40 ]
  br label %32

32:                                               ; preds = %32, %.preheader.i
  %indvars.iv.i = phi i64 [ 0, %.preheader.i ], [ %indvars.iv.next.i, %32 ]
  %33 = getelementptr inbounds nuw i16, ptr %.01519.i, i64 %indvars.iv.i
  %34 = load i16, ptr %33, align 2, !tbaa !4
  %35 = zext i16 %34 to i32
  %36 = add nsw i32 %31, %35
  %37 = tail call i32 @llvm.smax.i32(i32 %36, i32 0)
  %38 = tail call i32 @llvm.umin.i32(i32 %37, i32 16383)
  %39 = trunc nuw nsw i32 %38 to i16
  store i16 %39, ptr %33, align 2, !tbaa !4
  %indvars.iv.next.i = add nuw nsw i64 %indvars.iv.i, 1
  %exitcond.not.i = icmp eq i64 %indvars.iv.next.i, 4
  br i1 %exitcond.not.i, label %40, label %32, !llvm.loop !103

40:                                               ; preds = %32
  %41 = getelementptr inbounds i16, ptr %.01519.i, i64 %7
  %42 = add nuw nsw i32 %.01618.i, 1
  %exitcond21.not.i = icmp eq i32 %42, 4
  br i1 %exitcond21.not.i, label %ff_h264_idct_dc_add_14_c.exit, label %.preheader.i, !llvm.loop !104

ff_h264_idct_dc_add_14_c.exit:                    ; preds = %40, %14, %20
  %indvars.iv.next = add nuw nsw i64 %indvars.iv, 1
  %exitcond.not = icmp eq i64 %indvars.iv.next, 16
  br i1 %exitcond.not, label %43, label %8, !llvm.loop !108

43:                                               ; preds = %ff_h264_idct_dc_add_14_c.exit
  ret void
}